target datalayout = "e-m:e-p270:32:32-p271:32:32-p272:64:64-i64:64-i128:128-f80:128-n8:16:32:64-S128"
target triple = "x86_64-unknown-linux-gnu"

%"class.base::BasicStringPiece" = type { ptr, i64 }
%"struct.url::Component" = type { i32, i32 }
%"class.base::BasicStringPiece.4" = type { ptr, i64 }

; Function Attrs: mustprogress nounwind uwtable
define linkonce_odr dso_local noundef zeroext i1 @_ZNK3url9Component11is_nonemptyEv(ptr noundef nonnull align 4 dereferenceable(8) %this) #1 comdat align 2 {
entry:
  %this.addr = alloca ptr, align 8
  store ptr %this, ptr %this.addr, align 8
  %this1 = load ptr, ptr %this.addr, align 8
  %len = getelementptr inbounds %"struct.url::Component", ptr %this1, i32 0, i32 1
  %0 = load i32, ptr %len, align 4
  %cmp = icmp sgt i32 %0, 0
  ret i1 %cmp
}

; Function Attrs: mustprogress uwtable
define internal noundef zeroext i1 @_ZN3url12_GLOBAL__N_124DoCompareSchemeComponentItEEbPKT_RKNS_9ComponentEPKc(ptr noundef %spec, ptr noundef nonnull align 4 dereferenceable(8) %component, ptr noundef %compare_to) #0 {
entry:
  %retval = alloca i1, align 1
  %spec.addr = alloca ptr, align 8
  %component.addr = alloca ptr, align 8
  %compare_to.addr = alloca ptr, align 8
  %agg.tmp = alloca %"class.base::BasicStringPiece.4", align 8
  %agg.tmp3 = alloca %"class.base::BasicStringPiece", align 8
  store ptr %spec, ptr %spec.addr, align 8
  store ptr %component, ptr %component.addr, align 8
  store ptr %compare_to, ptr %compare_to.addr, align 8
  %0 = load ptr, ptr %component.addr, align 8
  %call = call noundef zeroext i1 @_ZNK3url9Component11is_nonemptyEv(ptr noundef nonnull align 4 dereferenceable(8) %0)
  br i1 %call, label %if.end, label %if.then

if.then:                                          ; preds = %entry
  %1 = load ptr, ptr %compare_to.addr, align 8
  %arrayidx = getelementptr inbounds i8, ptr %1, i64 0
  %2 = load i8, ptr %arrayidx, align 1
  %conv = sext i8 %2 to i32
  %cmp = icmp eq i32 %conv, 0
  store i1 %cmp, ptr %retval, align 1
  br label %return

if.end:                                           ; preds = %entry
  %3 = load ptr, ptr %spec.addr, align 8
  %4 = load ptr, ptr %component.addr, align 8
  %begin = getelementptr inbounds %"struct.url::Component", ptr %4, i32 0, i32 0
  %5 = load i32, ptr %begin, align 4
  %idxprom = sext i32 %5 to i64
  %arrayidx1 = getelementptr inbounds i16, ptr %3, i64 %idxprom
  %6 = load ptr, ptr %component.addr, align 8
  %len = getelementptr inbounds %"struct.url::Component", ptr %6, i32 0, i32 1
  %7 = load i32, ptr %len, align 4
  %conv2 = sext i32 %7 to i64
  call void @_ZN4base16BasicStringPieceINSt7__cxx1112basic_stringItNS_20string16_char_traitsESaItEEEEC1EPKtm(ptr noundef nonnull align 8 dereferenceable(16) %agg.tmp, ptr noundef %arrayidx1, i64 noundef %conv2)
  %8 = load ptr, ptr %compare_to.addr, align 8
  call void @_ZN4base16BasicStringPieceINSt7__cxx1112basic_stringIcSt11char_traitsIcESaIcEEEEC1EPKc(ptr noundef nonnull align 8 dereferenceable(16) %agg.tmp3, ptr noundef %8)
  %9 = getelementptr inbounds { ptr, i64 }, ptr %agg.tmp, i32 0, i32 0
  %10 = load ptr, ptr %9, align 8
  %11 = getelementptr inbounds { ptr, i64 }, ptr %agg.tmp, i32 0, i32 1
  %12 = load i64, ptr %11, align 8
  %13 = getelementptr inbounds { ptr, i64 }, ptr %agg.tmp3, i32 0, i32 0
  %14 = load ptr, ptr %13, align 8
  %15 = getelementptr inbounds { ptr, i64 }, ptr %agg.tmp3, i32 0, i32 1
  %16 = load i64, ptr %15, align 8
  %call4 = call noundef zeroext i1 @_ZN4base20LowerCaseEqualsASCIIENS_16BasicStringPieceINSt7__cxx1112basic_stringItNS_20string16_char_traitsESaItEEEEENS0_INS2_IcSt11char_traitsIcESaIcEEEEE(ptr %10, i64 %12, ptr %14, i64 %16)
  store i1 %call4, ptr %retval, align 1
  br label %return

return:                                           ; preds = %if.end, %if.then
  %17 = load i1, ptr %retval, align 1
  ret i1 %17
}

; Function Attrs: mustprogress uwtable
define dso_local noundef zeroext i1 @_ZN3url22CompareSchemeComponentEPKtRKNS_9ComponentEPKc(ptr noundef %spec, ptr noundef nonnull align 4 dereferenceable(8) %component, ptr noundef %compare_to) #0 {
entry:
  %spec.addr = alloca ptr, align 8
  %component.addr = alloca ptr, align 8
  %compare_to.addr = alloca ptr, align 8
  store ptr %spec, ptr %spec.addr, align 8
  store ptr %component, ptr %component.addr, align 8
  store ptr %compare_to, ptr %compare_to.addr, align 8
  %0 = load ptr, ptr %spec.addr, align 8
  %1 = load ptr, ptr %component.addr, align 8
  %2 = load ptr, ptr %compare_to.addr, align 8
  %call = call noundef zeroext i1 @_ZN3url12_GLOBAL__N_124DoCompareSchemeComponentItEEbPKT_RKNS_9ComponentEPKc(ptr noundef %0, ptr noundef nonnull align 4 dereferenceable(8) %1, ptr noundef %2)
  ret i1 %call
}