; Function Attrs: mustprogress uwtable
define dso_local noundef zeroext i1 @_ZN3url22CompareSchemeComponentEPKtRKNS_9ComponentEPKc(ptr noundef %spec, ptr nocapture noundef nonnull readonly align 4 dereferenceable(8) %component, ptr noundef %compare_to) local_unnamed_addr #0 {
entry:
  %agg.tmp.i = alloca %"class.base::BasicStringPiece.4", align 8
  %agg.tmp3.i = alloca %"class.base::BasicStringPiece", align 8
  %component.val = load i32, ptr %component, align 4
  %0 = getelementptr inbounds i8, ptr %component, i64 4
  %component.val1 = load i32, ptr %0, align 4
  call void @llvm.lifetime.start.p0(i64 16, ptr nonnull %agg.tmp.i)
  call void @llvm.lifetime.start.p0(i64 16, ptr nonnull %agg.tmp3.i)
  %cmp.i.i = icmp sgt i32 %component.val1, 0
  br i1 %cmp.i.i, label %if.end.i, label %if.then.i

if.then.i:                                        ; preds = %entry
  %1 = load i8, ptr %compare_to, align 1
  %cmp.i = icmp eq i8 %1, 0
  br label %_ZN3url12_GLOBAL__N_124DoCompareSchemeComponentItEEbPKT_RKNS_9ComponentEPKc.exit

if.end.i:                                         ; preds = %entry
  %idxprom.i = sext i32 %component.val to i64
  %arrayidx1.i = getelementptr inbounds i16, ptr %spec, i64 %idxprom.i
  %conv2.i = zext nneg i32 %component.val1 to i64
  call void @_ZN4base16BasicStringPieceINSt7__cxx1112basic_stringItNS_20string16_char_traitsESaItEEEEC1EPKtm(ptr noundef nonnull align 8 dereferenceable(16) %agg.tmp.i, ptr noundef %arrayidx1.i, i64 noundef %conv2.i)
  call void @_ZN4base16BasicStringPieceINSt7__cxx1112basic_stringIcSt11char_traitsIcESaIcEEEEC1EPKc(ptr noundef nonnull align 8 dereferenceable(16) %agg.tmp3.i, ptr noundef %compare_to)
  %2 = load ptr, ptr %agg.tmp.i, align 8
  %3 = getelementptr inbounds i8, ptr %agg.tmp.i, i64 8
  %4 = load i64, ptr %3, align 8
  %5 = load ptr, ptr %agg.tmp3.i, align 8
  %6 = getelementptr inbounds i8, ptr %agg.tmp3.i, i64 8
  %7 = load i64, ptr %6, align 8
  %call4.i = call noundef zeroext i1 @_ZN4base20LowerCaseEqualsASCIIENS_16BasicStringPieceINSt7__cxx1112basic_stringItNS_20string16_char_traitsESaItEEEEENS0_INS2_IcSt11char_traitsIcESaIcEEEEE(ptr %2, i64 %4, ptr %5, i64 %7)
  br label %_ZN3url12_GLOBAL__N_124DoCompareSchemeComponentItEEbPKT_RKNS_9ComponentEPKc.exit

_ZN3url12_GLOBAL__N_124DoCompareSchemeComponentItEEbPKT_RKNS_9ComponentEPKc.exit: ; preds = %if.then.i, %if.end.i
  %retval.0.i = phi i1 [ %call4.i, %if.end.i ], [ %cmp.i, %if.then.i ]
  call void @llvm.lifetime.end.p0(i64 16, ptr nonnull %agg.tmp.i)
  call void @llvm.lifetime.end.p0(i64 16, ptr nonnull %agg.tmp3.i)
  ret i1 %retval.0.i
}